target datalayout = "e-m:e-p270:32:32-p271:32:32-p272:64:64-i64:64-i128:128-f80:128-n8:16:32:64-S128"
target triple = "x86_64-pc-linux-gnu"

%struct._object = type { %union.anon, ptr }
%union.anon = type { i64 }
%struct.PyMemberDef = type { ptr, i32, i64, i32, ptr }

@_Py_NoneStruct = external global %struct._object, align 8
@__const.heaptype_with_member_set_memb_relative.def = private unnamed_addr constant { ptr, i32, [4 x i8], i64, i32, [4 x i8], ptr } { ptr @.str.25, i32 8, [4 x i8] zeroinitializer, i64 16, i32 8, [4 x i8] zeroinitializer, ptr null }, align 8

; Function Attrs: nounwind uwtable
define internal ptr @heaptype_with_member_set_memb_relative(ptr noundef %0, ptr noundef %1) #0 {
  %3 = alloca ptr, align 8
  %4 = alloca ptr, align 8
  %5 = alloca ptr, align 8
  %6 = alloca %struct.PyMemberDef, align 8
  %7 = alloca i32, align 4
  %8 = alloca i32, align 4
  store ptr %0, ptr %4, align 8, !tbaa !3
  store ptr %1, ptr %5, align 8, !tbaa !3
  call void @llvm.lifetime.start.p0(i64 40, ptr %6) #7
  call void @llvm.memcpy.p0.p0.i64(ptr align 8 %6, ptr align 8 @__const.heaptype_with_member_set_memb_relative.def, i64 40, i1 false)
  call void @llvm.lifetime.start.p0(i64 4, ptr %7) #7
  %9 = load ptr, ptr %4, align 8, !tbaa !3
  %10 = load ptr, ptr %5, align 8, !tbaa !3
  %11 = call i32 @PyMember_SetOne(ptr noundef %9, ptr noundef %6, ptr noundef %10)
  store i32 %11, ptr %7, align 4, !tbaa !8
  %12 = load i32, ptr %7, align 4, !tbaa !8
  %13 = icmp slt i32 %12, 0
  br i1 %13, label %14, label %15

14:                                               ; preds = %2
  store ptr null, ptr %3, align 8
  store i32 1, ptr %8, align 4
  br label %16

15:                                               ; preds = %2
  store ptr @_Py_NoneStruct, ptr %3, align 8
  store i32 1, ptr %8, align 4
  br label %16

16:                                               ; preds = %15, %14
  call void @llvm.lifetime.end.p0(i64 4, ptr %7) #7
  call void @llvm.lifetime.end.p0(i64 40, ptr %6) #7
  %17 = load ptr, ptr %3, align 8
  ret ptr %17
}