; Function Attrs: nounwind uwtable
define internal ptr @heaptype_with_member_set_memb_relative(ptr noundef %0, ptr noundef %1) #0 {
  %3 = alloca %struct.PyMemberDef, align 8
  call void @llvm.lifetime.start.p0(i64 40, ptr nonnull %3) #8
  call void @llvm.memcpy.p0.p0.i64(ptr noundef nonnull align 8 dereferenceable(40) %3, ptr noundef nonnull align 8 dereferenceable(40) @__const.heaptype_with_member_set_memb_relative.def, i64 40, i1 false)
  %4 = call i32 @PyMember_SetOne(ptr noundef %0, ptr noundef nonnull %3, ptr noundef %1) #8
  %5 = icmp slt i32 %4, 0
  %._Py_NoneStruct = select i1 %5, ptr null, ptr @_Py_NoneStruct
  call void @llvm.lifetime.end.p0(i64 40, ptr nonnull %3) #8
  ret ptr %._Py_NoneStruct
}